; Function Attrs: nofree norecurse nosync nounwind sspstrong memory(readwrite, inaccessiblemem: none) uwtable
define hidden range(i32 0, 2) i32 @rb_id_table_delete(ptr noundef captures(none) %0, i64 noundef %1) local_unnamed_addr #12 {
  %3 = icmp ugt i64 %1, 170
  %4 = lshr i64 %1, 4
  %.0.in.i.i = select i1 %3, i64 %4, i64 %1
  %.0.i.i = trunc i64 %.0.in.i.i to i32
  %5 = load i32, ptr %0, align 8, !tbaa !82
  %6 = icmp sgt i32 %5, 0
  br i1 %6, label %7, label %hash_delete_index.exit

7:                                                ; preds = %2
  %8 = add nsw i32 %5, -1
  %9 = getelementptr inbounds nuw i8, ptr %0, i64 16
  %10 = load ptr, ptr %9, align 8, !tbaa !85
  %.01418.i = and i32 %8, %.0.i.i
  %11 = zext nneg i32 %.01418.i to i64
  %12 = getelementptr %struct.rb_id_item, ptr %10, i64 %11
  %13 = load i32, ptr %12, align 8, !tbaa !88
  %.not19.i = icmp eq i32 %13, %.0.i.i
  br i1 %.not19.i, label %hash_table_index.exit.thread6, label %.lr.ph.i

.lr.ph.i:                                         ; preds = %7, %17
  %14 = phi i64 [ %20, %17 ], [ %11, %7 ]
  %.01421.i = phi i32 [ %.014.i, %17 ], [ %.01418.i, %7 ]
  %.020.i = phi i32 [ %19, %17 ], [ 1, %7 ]
  %15 = getelementptr %struct.rb_id_item, ptr %10, i64 %14, i32 1
  %16 = load i32, ptr %15, align 4, !tbaa !90
  %.not17.i = icmp eq i32 %16, 0
  br i1 %.not17.i, label %hash_delete_index.exit, label %17

17:                                               ; preds = %.lr.ph.i
  %18 = add i32 %.020.i, %.01421.i
  %19 = add i32 %.020.i, 1
  %.014.i = and i32 %18, %8
  %20 = zext nneg i32 %.014.i to i64
  %21 = getelementptr %struct.rb_id_item, ptr %10, i64 %20
  %22 = load i32, ptr %21, align 8, !tbaa !88
  %.not.i = icmp eq i32 %22, %.0.i.i
  br i1 %.not.i, label %hash_table_index.exit, label %.lr.ph.i, !llvm.loop !91

hash_table_index.exit:                            ; preds = %17
  %23 = icmp sgt i32 %.014.i, -1
  br i1 %23, label %hash_table_index.exit.thread6, label %hash_delete_index.exit

hash_table_index.exit.thread6:                    ; preds = %7, %hash_table_index.exit
  %.pre-phi = phi i64 [ %11, %7 ], [ %20, %hash_table_index.exit ]
  %24 = getelementptr %struct.rb_id_item, ptr %10, i64 %.pre-phi, i32 1
  %25 = load i32, ptr %24, align 4, !tbaa !90
  %.not.i4 = icmp eq i32 %25, 0
  br i1 %.not.i4, label %26, label %30

26:                                               ; preds = %hash_table_index.exit.thread6
  %27 = getelementptr inbounds nuw i8, ptr %0, i64 8
  %28 = load i32, ptr %27, align 8, !tbaa !87
  %29 = add i32 %28, -1
  store i32 %29, ptr %27, align 8, !tbaa !87
  br label %30

30:                                               ; preds = %26, %hash_table_index.exit.thread6
  %31 = getelementptr inbounds nuw i8, ptr %0, i64 4
  %32 = load i32, ptr %31, align 4, !tbaa !86
  %33 = add i32 %32, -1
  store i32 %33, ptr %31, align 4, !tbaa !86
  %34 = getelementptr %struct.rb_id_item, ptr %10, i64 %.pre-phi
  store i32 0, ptr %34, align 8, !tbaa !88
  %35 = getelementptr %struct.rb_id_item, ptr %10, i64 %.pre-phi, i32 2
  store i64 0, ptr %35, align 8, !tbaa !92
  br label %hash_delete_index.exit

hash_delete_index.exit:                           ; preds = %.lr.ph.i, %2, %hash_table_index.exit, %30
  %.0.i = phi i32 [ 1, %30 ], [ 0, %hash_table_index.exit ], [ 0, %2 ], [ 0, %.lr.ph.i ]
  ret i32 %.0.i
}